
 Start         Length     Name                   Class
 0002:00000000 000001000H cseg02                 CODE
 0001:00000000 0000CF000H cseg01                 CODE
 0003:00000000 0001E9990H dseg03                 STACK


  Address         Publics by Value

 0001:00000003       ___begtext
 0001:00001264       finforum_
 0001:00002FA2       tabeliao_
 0001:0000441F       gs_carimbo_
 0001:000045A2       ckp_func3_
 0001:00004723       cebolinha_
 0001:00004B65       aIHECA@?K
 0001:00004B75       aJ
 0001:00004B77       aI
 0001:00004B79       aE
 0001:00004B7B       aD
 0001:00004B7D       aC
 0001:00004B7F       aB
 0001:00004B81       aA
 0001:00004B85       aU
 0001:00004B87       aS_2
 0001:000057ED       SND_1E37ED
 0001:00005A3C       xempora_
 0001:00005A5E       cmd_del_
 0001:00005A85       nojo_espirita_
 0001:00005EF2       lamburcia_
 0001:00005FFC       tonga_ponga_
 0001:00006098       arvorecantante_
 0001:00006725       ckp_func1_
 0001:00006DCF       CFG_load_
 0001:00006F21       mesa_boi_
 0001:000072B8       CallMalloc_
 0001:000072BF       CallFree_
 0001:00009459       ss_exit_
 0001:00009538       ss_init_
 0001:0000954C       error_quit
 0001:00009CA7       shit_cutscene_
 0001:0000A16E       shitscreen0_
 0001:0000A337       gs_capa_
 0001:0000A366       manialoca_
 0001:0000A4F1       VID_LoadIPal_
 0001:0000A85A       naldo_
 0001:0000AB0B       getMemSize_
 0001:0000AB91       game_callbiostod
 0001:0000C0CC       gadlucia_
 0001:0000C768       nullsub_1
 0001:0000C790       coisa_digiparm_
 0001:0000CB76       perhaps_play_resource_
 0001:0000CD9B       AddPathCITHOME_
 0001:0000D03F       nullsub_2
 0001:0000D271       nullsub_23
 0001:0000F191       fazcrico_
 0001:0000F61A       fazbreato_
 0001:0000F65D       ckp_func2_
 0001:00010BF0       timer_inc_
 0001:00010E8E       cachorro_
 0001:00010F34       tremk_func_
 0001:00010FA4       montanha_
 0001:00010FC8       novela_
 0001:0001127C       jeimonha_
 0001:00011348       dbgsetattr_
 0001:00012B80       MAP_paioca_
 0001:00012BC0       PR_PreStuff_
 0001:00012D98       R_PreRenderObject_
 0001:00013520       MAP_jiban_
 0001:0001369C       MAP_FillVisited_
 0001:00013734       PR_DoSome_
 0001:00013830       PR_PreDoAll_
 0001:00013C8C       detumpa_
 0001:00013EA4       nullsub_3
 0001:00013EE0       nullsub_4
 0001:00013F38       init_pufas_
 0001:000145B4       test_detail_
 0001:000145C9       case_min
 0001:000145D2       case_low
 0001:000145DB       case_hi
 0001:000145E7       case_max
 0001:0001463C       glop_detail_
 0001:000146A4       R_SetRenderFuncs_
 0001:0001522C       nullsub_24
 0001:000159E4       R_RenderRightWall_
 0001:00016B64       R_PreRenderRightWall_
 0001:00016EF8       PR_DoRightWall_
 0001:00017130       PR_DoIt_
 0001:00018064       pandoia_
 0001:00018694       cascao_
 0001:000186E6       init_bosta_
 0001:00018786       regstuff1_
 0001:000189BA       callsetscr_
 0001:00018E71       oshitscreen0_
 0001:000190F0       gs_gorpo_
 0001:00019314       R_RenderBoxBridge_
 0001:0001AAD4       R_RenderObject_
 0001:0001C0F8       hutclom_
 0001:0001C6C8       klorgam_
 0001:0001D914       R_DoRendObject_
 0001:0001DA5F       UI_loadstrings_
 0001:0001DB40       getres_thunk_
 0001:0001E172       look_fplayercmd_
 0001:0001E3C0       blop_fplayercmd_
 0001:0001F20C       nullsub_5
 0001:0001F21A       cheguevara_
 0001:0001F73F       MAP_BetaLoad_
 0001:0001F8F8       MAP_MetaLoad_
 0001:0001FC02       loadorsave_
 0001:0001FF16       font_chooser_
 0001:00020000       mode_default
 0001:0002036B       ss_string_
 0001:0002051F       VID_Tundra_
 0001:00020C36       ss_rect_
 0001:00021815       ss_int_disk_
 0001:000218D0       ss_vline_
 0001:00021966       ss_hline_
 0001:00021FAA       shit_vidmode_
 0001:00021FCF       register_vidmode_
 0001:000222CA       fop_videofn_
 0001:00023B41       cmd_quit_
 0001:00023B54       cmd_showrc_
 0001:00023BD0       cmd_togglejm_
 0001:00023BEC       cmd_togglefs_
 0001:00023BFA       cmd_manycmd_
 0001:00023C58       cmd_altquote_
 0001:00023D12       cmd_ctlquote_
 0001:00023D3B       cmd_ctlsemicolon_
 0001:00023D5B       cmd_altsemicolon_
 0001:00023DA4       ckp_func4_
 0001:00023DD1       cmd_backspace_
 0001:00023E0A       cmd_showver_
 0001:00023ED5       cmd_showmem_
 0001:00023FF5       cmd_pause_
 0001:00024075       cmd_spacebar_
 0001:000240AD       cmd_textcolor_
 0001:00024FAD       wait_sometime_
 0001:00024FDC       ss_start_game_
 0001:0002544B       poorFunc
 0001:00025513       init_kbchain_
 0001:000255EC       load_pal
 0001:000258C4       load_resources_
 0001:00025965       piralim_
 0001:000259DE       showThanks_
 0001:00025A08       viewplayerattr_
 0001:00025C91       grum_cmd_
 0001:00025CCD       petreco_
 0001:00025D4A       game_frame_
 0001:00025DDB       regfn13_
 0001:00025DFE       cmd_setheight_
 0001:00025E0D       cmd_centerview_
 0001:00026057       input_init_
 0001:0002785C       ckp_func6_
 0001:00027BCE       ckp_func5_
 0001:00027C44       HMD_stuff
 0001:0002868D       cmd_centerheadset_
 0001:000286DF       cmd_altj_
 0001:000286F1       cmd_gamma_
 0001:00028F4F       reg_pruncs_
 0001:00028FA9       regckp_
 0001:00029232       aragorn_
 0001:0002BF95       fazxixi_
 0001:0002C313       ckp_func7_
 0001:0002C5C4       ckp_func8_
 0001:0002C7DB       cmd_invpage_
 0001:0002C8D2       cmd_nextwep_
 0001:0002C998       reg_invkeys_
 0001:0002D72A       setPlPitch_
 0001:0002D88D       mousev_standlook_
 0001:0002D9B2       mousev_standlook2_
 0001:0002E1BB       dochkheap_
 0001:0002E1E0       change_gstate_
 0001:0002E248       main_
 0001:0002E30E       MAP_bubum_
 0001:0002E35B       MAP_alloc_
 0001:0002E3F1       MAP_setlevelinfo_
 0001:0002E401       MAP_create_
 0001:0002E420       MAP_free
 0001:00031A65       cmd_unknown_
 0001:00031AAA       reg_unkown_
 0001:00031E92       caxapoia_
 0001:00031FE9       girompa_
 0001:000326F1       mfd_shitcodevar
 0001:000326F3       mfd_games_init
 0001:00032721       mfd_games_handler
 0001:000327CD       mfd_games_expose
 0001:0003291F       games_init_null_
 0001:00032920       games_expose_menu_
 0001:00032C9D       games_expose_null_
 0001:00032DEA       games_init_pong_
 0001:00032E24       games_run_pong_
 0001:00032FD5       games_expose_pong
 0001:00033227       games_handle_pong_
 0001:0003331E       games_init_road_
 0001:00033356       games_run_road_
 0001:0003348B       road_vline_
 0001:000334D7       games_expose_road_
 0001:000336C8       games_handle_road_
 0001:00033726       bots_reset_ball_
 0001:0003373B       bots_reset_level_
 0001:0003376B       games_init_bots_
 0001:00033781       test_bot_
 0001:000337DA       games_run_bots_
 0001:00033A37       games_expose_bots_
 0001:00033BA7       make_mcom_explode_
 0001:00033BE0       make_mcom_shot_
 0001:00033D34       advance_mcom_state
 0001:00033FFC       games_init_mcom_
 0001:00034233       games_expose_mcom_
 0001:00034823       games_init_15_
 0001:0003499C       games_expose_15
 0001:000351A5       games_init_ttt_
 0001:00035253       games_expose_ttt_
 0001:00037198       games_init_wing_
 0001:0003721F       games_expose_wing
 0001:000372B3       mfd_games_hack_func
 0001:00037306       mfd_games_turnon
 0001:00037361       mfd_games_turnoff
 0001:00038136       ourico_
 0001:00038C9A       camelo_
 0001:0003949D       pandora_
 0001:000396CB       guardasol_
 0001:000397DC       klondike_
 0001:00039D05       carvalho_
 0001:0003C24C       _rs_scankeys
 0001:0003C3E8       call_key_normal_
 0001:0003C40C       rs_run_
 0001:0003C416       rs_default_
 0001:0003C423       rs_walk_
 0001:0003C42F       rs_yawleft_f_
 0001:0003C434       rs_yawleft_
 0001:0003C43F       rs_yawright_f_
 0001:0003C444       rs_yawright_
 0001:0003C44F       rs_back_
 0001:0003C45B       rs_strafeleft_
 0001:0003C467       rs_straferight_
 0001:0003C46E       rs_jump_
 0001:0003C475       rs_stoplean_
 0001:0003C481       rs_leanleft_
 0001:0003C49D       rs_leanright_
 0001:0003C4A4       rs_pitchup_
 0001:0003C4AE       rs_pitchdown_
 0001:0003C4B5       rs_runleft_
 0001:0003C4F1       rs_runright_
 0001:0003C52D       _cs_scankeys
 0001:0003C699       call_key_cyber_
 0001:0003C6C0       cs_thrust_
 0001:0003C6CF       cs_climb_
 0001:0003C6DE       cs_climbleft_
 0001:0003C710       cs_bankleft_
 0001:0003C717       cs_climbright_
 0001:0003C749       cs_bankright_
 0001:0003C753       cs_diveright_
 0001:0003C75F       cs_diveleft_
 0001:0003C76E       cs_dive_
 0001:0003C778       cs_rollleft_
 0001:0003C782       init_keystotest_
 0001:0003C7C3       clrplayercmd_
 0001:0003C7D9       applyplayercmd_
 0001:0003C817       call_key_proc_
 0001:0003C95C       peixada_
 0001:0003D17C       SND_getvar_
 0001:0003D25C       SND_init_
 0001:0003F43C       reg_fnkeys_
 0001:0003F57F       mfd_notify_func_
 0001:0003FF4F       cmd_fnkey
 0001:000409B1       mfd_add_rect_
 0001:00040AFA       barbadevelho_
 0001:00040B51       lotus_
 0001:0004122A       init_mot
 0001:00041399       copycoords_
 0001:000413CD       changecell_
 0001:00041412       deepapplyfn_
 0001:0004218C       truempa_
 0001:0004421C       deepapplyattr_
 0001:00044508       doobjphysics_
 0001:00044D0C       cdoobjphysics_
 0001:00045B38       getObject_
 0001:00045FB4       esbofe_
 0001:00047A1D       xerosa_
 0001:00048EE5       poboia_
 0001:00049ECC       nullsub_17
 0001:00049ECD       R_MayShowHelp_
 0001:0004A307       pumpolha_
 0001:0004A3AA       cmd_help_
 0001:0004A3DB       cmd_showid_
 0001:0004A4E1       R_ShowOnlineHelp_
 0001:0004B52C       churkOdd_
 0001:0004B620       zeropclist_
 0001:0004B638       setplayerdeltas_
 0001:0004B6FC       setplayerattr_
 0001:0004B71C       getplayerattr_
 0001:0004B95C       setplayervar_
 0001:0004B980       cspace_dtileobjs_
 0001:0004BB88       big_physics_fn_
 0001:0004CD98       change_standpos_
 0001:0004CDA0       setLeanShit_
 0001:0004D47C       nullsub_6
 0001:0004E591       barinete_
 0001:0004EB44       alameda_
 0001:0004ED74       some_cyberstuff_
 0001:0004EF2A       teatro_
 0001:0004EF90       uiComposedBlit_
 0001:0004F690       ximbruaca_
 0001:0004F708       init_glonar_
 0001:0004F8B0       MAP_zumeira_
 0001:0004FBE7       pirarucu_
 0001:0004FE53       huge_crum_
 0001:000509BE       MAP_Load_
 0001:00051648       nullsub_7
 0001:00051BB4       nullsub_8
 0001:00051E3D       register_fns1_
 0001:00051ECA       init_videomodes_
 0001:0005242E       init_someass_
 0001:000524A2       gs_prenda_
 0001:00052723       UI_start_noname
 0001:00052C6B       MAP_LoadFromMainMenu_
 0001:00053175       UI_newgame_key_evt_
 0001:00053BA6       doexit
 0001:00053BAC       reg_numkeys_
 0001:00053F56       cmd_hwicons_
 0001:00054363       nullsub_9
 0001:00056783       R_LoadTables_
 0001:0005746C       pardalia_
 0001:00057CF9       funcao_mel_
 0001:00057F97       load_bitmap_
 0001:00057FDA       draw_res_bm_core_
 0001:0005808F       draw_res_bm_
 0001:000583EF       cmd_screenshot_
 0001:000584AF       draw_message_
 0001:000589ED       iogurte_
 0001:00058BC3       sbum_read
 0001:00058C54       zuleica_
 0001:0005CD79       fifife_
 0001:0005E279       nullsub_10
 0001:0005E38B       nullsub_18
 0001:0005E5A9       cmd_alt4_
 0001:0005E6E2       cmd_alt5_
 0001:0006074D       cmd_altctlbp_
 0001:00060CA7       GUI_ModSlider_
 0001:00060E23       GUI_ModButton_
 0001:00060E72       GUI_DisableButton_
 0001:00060E95       GUI_SelectButton_
 0001:00060F24       registerwarning_
 0001:000611FF       GUI_ModTogBtn_
 0001:00061AAB       GUI_Clear_
 0001:00061B27       GUI_NewButton_
 0001:00061BFA       GUI_NewSlider_
 0001:00061D90       switchgui_
 0001:00061E3F       gui_escmenu_
 0001:00061EEA       saveshit_
 0001:00061FBF       simpson_
 0001:00062000       nullsub_11
 0001:00062120       paruaca_
 0001:0006216F       gui_audioopt_
 0001:000622E8       gui_audio_
 0001:00062602       trychangescr_
 0001:0006262A       loadLangRes_
 0001:000626B7       gui_changelang_
 0001:00062803       GUI_chgviddetail_
 0001:00062867       nullsub_12
 0001:000628BD       gui_joystick_
 0001:00062A2C       gui_input_
 0001:00062BAE       gui_video_
 0001:00062D33       gui_headset_
 0001:00062EEA       gui_videomode_
 0001:00063014       gui_options_
 0001:0006314D       cmd_menu_
 0001:0006315A       MAP_LoadFromGameMenu_
 0001:0006323B       gui_quit_
 0001:00063330       initgui_
 0001:000634F8       nullsub_13
 0001:000636E0       cmd_loadsave_
 0001:00063717       cmd_quitmenu_
 0001:0006372E       rand_
 0001:00063752       srand_
 0001:0006392C       fillstrangestr_
 0001:00064368       c_setSomeOdd_B
 0001:000644A0       nullsub_22
 0001:00064F27       tanajura_
 0001:000650D7       retenta_
 0001:00065150       strncpy_
 0001:00065180       load_font_
 0001:000651F4       painoel_
 0001:000654FA       memmove_
 0001:00065545       gr_set_canvas_
 0001:00065622       gr_push_canvas_
 0001:00065655       gr_pop_canvas_
 0001:00065684       gr_init_canvas_
 0001:0006571A       gr_init_sub_canvas_
 0001:000657AE       mb_gr_make_canvas_
 0001:000657D2       gr_alloc_canvas_
 0001:0006582F       gr_free_canvas_
 0001:00065853       gr_alloc_sub_canvas_
 0001:0006589D       gr_free_sub_canvas_
 0001:00065910       grow_save_under_
 0001:00065964       cursor_get_callback_
 0001:000659AC       uiMakeCursorStack_
 0001:000659F8       uiDestroyCursorStack_
 0001:00065A20       uiSetRegionCursorStack_
 0001:00065A30       uiGetSlabCursorStack_
 0001:00065A44       uiSetDefaultCursor_
 0001:00065A58       uiGetDefaultCursor_
 0001:00065A6C       uiPushCursor_
 0001:00065AF0       uiPopCursor_
 0001:00065B20       uiGetTopCursor_
 0001:00065B48       uiPushCursorOnce_
 0001:00065BA4       uiPopCursorEvery_
 0001:00065C24       get_region_stack_
 0001:00065C64       uiGetRegionCursorStack_
 0001:00065C80       ui_init_cursors_
 0001:00065D38       uiUpdateScreenSize_
 0001:00065E1C       ui_shutdown_cursors_
 0001:00065E34       ui_set_current_cursor_
 0001:00065ED0       ui_update_cursor_
 0001:00065FA0       uiSetCursor_
 0001:00066000       uiSetRegionDefaultCursor_
 0001:00066028       uiPushRegionCursor_
 0001:00066054       uiPopRegionCursor_
 0001:00066094       uiGetRegionCursor_
 0001:000660B8       uiShutdownRegionCursors_
 0001:000660F0       uiSetSlabDefaultCursor_
 0001:00066108       uiSetGlobalDefaultCursor_
 0001:00066128       uiPushSlabCursor_
 0001:00066144       uiPushGlobalCursor_
 0001:0006616C       uiPopSlabCursor_
 0001:0006619C       uiPopGlobalCursor_
 0001:000661D0       uiGetSlabCursor_
 0001:000661F4       uiGetGlobalCursor_
 0001:00066220       uiHideMouse_
 0001:00066468       uiShowMouse_
 0001:00066628       uiMakeBitmapCursor_
 0001:00066FA0       ui_mouse_do_conversion_
 0001:00066FB8       ui_mouse_get_xy_
 0001:00066FE8       ui_mouse_put_xy_
 0001:00067024       ui_mouse_constrain_xy_
 0001:00067093       a123456789abcde
 0001:000670B7       utoa_
 0001:000670FD       itoa_
 0001:00067204       RES_Get_
 0001:000674C0       region_init_
 0001:00067520       region_create_
 0001:00067650       region_destroy_
 0001:000676D4       region_move_
 0001:000677B0       region_resize_
 0001:00067814       region_traverse_point_
 0001:00067934       region_traverse_rect_
 0001:00067A68       region_traverse_
 0001:00067B00       trav_get_first_
 0001:00067B20       trav_get_next_
 0001:00067B4C       region_place_
 0001:00067B74       region_remove_
 0001:00067BF0       region_moverect_
 0001:00067C40       region_propagate_callback_
 0001:00067D2C       reg_exp_CB_
 0001:00067D64       region_expose_absolute_
 0001:00067E28       region_expose_
 0001:00067E6C       region_set_moving_
 0001:00067E90       region_convert_tochild_
 0001:00067ED0       region_convert_toparent_
 0001:00067F0C       region_abs_rect_
 0001:00067F74       is_child_
 0001:00067FA8       region_obscured_callback_
 0001:000680CC       region_obscured_
 0001:0006812C       foreign_region_obscured_
 0001:00068188       region_begin_sequence_
 0001:0006819C       get_rse_from_pool_
 0001:000681CC       return_rse_to_pool_
 0001:00068204       init_rse_pool_
 0001:00068258       region_flush_sequence_
 0001:000682B0       region_add_sequence_expose_
 0001:00068348       region_convert_to_root_
 0001:000683F8       region_manage_place_
 0001:000683FC       region_set_invisible_
 0001:00068410       region_get_invisible_
 0001:00068420       memset_
 0001:00068F80       ResAddPath_
 0001:00068F90       ResOpenResFile_
 0001:00069208       ResCloseFile_
 0001:000692F8       ResFindFreeFilenum_
 0001:0006932C       ResReadDirEntries_
 0001:000693D0       ResProcDirEntry_
 0001:00069508       ResReadEditInfo_
 0001:00069554       ResReadDir_
 0001:00069668       ResCreateEditInfo_
 0001:000696B4       ResCreateDir_
 0001:0006971C       ResWriteDir_
 0001:00069764       ResWriteHeader_
 0001:000697A0       ResSetCDSpoof_
 0001:000697B0       ResInit_
 0001:00069880       ResTerm_
 0001:000698E8       ResGrowResDescTable_
 0001:000699A4       ResShrinkResDescTable_
 0001:0006A6F4       verdana_
 0001:0006AA60       MemSetAllocator_
 0001:0006AAA0       MemPushAllocator_
 0001:0006AAF8       MemPopAllocator_
 0001:0006AB44       CallocNorm_
 0001:0006AB64       MemCheckOn_
 0001:0006ABA0       MemCheckOff_
 0001:0006ABE0       MallocConvMemBlock_
 0001:0006AC40       ReallocConvMemBlock_
 0001:0006ACD4       FreeConvMemBlock_
 0001:0006AD0C       MallocChecked_
 0001:0006AD5C       ReallocChecked_
 0001:0006ADB0       uiInstallRegionHandler_
 0001:0006AE74       uiRemoveRegionHandler_
 0001:0006AF0C       uiSetRegionHandlerMask_
 0001:0006AF38       uiGetRegionOpacity_
 0001:0006AF4C       uiSetRegionOpacity_
 0001:0006AFA0       uiGrabSlabFocus_
 0001:0006B018       uiGrabFocus_
 0001:0006B030       uiReleaseSlabFocus_
 0001:0006B114       uiReleaseFocus_
 0001:0006B12C       event_queue_add_
 0001:0006B210       event_queue_next_
 0001:0006B25C       region_check_opacity_
 0001:0006B274       event_dispatch_callback_
 0001:0006B2D4       ui_set_last_mouse_region_
 0001:0006B368       ui_try_region_
 0001:0006B3BC       ui_traverse_point_
 0001:0006B46C       send_event_to_region_
 0001:0006B480       uiDispatchEventToRegion_
 0001:0006B534       uiDispatchEvent_
 0001:0006B598       uiQueueEvent_
 0001:0006B668       ui_purge_mouse_events_
 0001:0006B6B8       ui_flush_mouse_events_
 0001:0006B7F4       ui_dispatch_mouse_event_
 0001:0006B990       uiSetKeyboardPolling_
 0001:0006B998       ui_poll_keyboard_
 0001:0006B9EC       ui_pop_up_keys_
 0001:0006BA1C       uiMakeMotionEvent_
 0001:0006BA4C       ui_poll_mouse_position_
 0001:0006BA8C       uiPoll_
 0001:0006BD2C       uiSetMouseMotionPolling_
 0001:0006BD50       uiFlush_
 0001:0006BDD0       uiCheckKeys_
 0001:0006BE70       uiInit_
 0001:0006BEEC       uiShutdown_
 0001:0006BEFC       uiShutdownRegionHandlers_
 0001:0006BF50       strcmp_
 0001:0006BFF1       strncmp_
 0001:0006C938       CFG_getint_
 0001:0006CB08       CFG_getstr_
 0001:0006CF00       DatapathFree_
 0001:0006CF3C       DatapathOpen_
 0001:0006D020       DatapathFDOpen_
 0001:0006D178       DatapathFind_
 0001:0006D280       DatapathAdd_
 0001:0006D328       DatapathAddDir_
 0001:0006D3E0       DatapathLastPath_
 0001:0006D3F9       _fullpath_
 0001:0006D6D0       snd_init_
 0001:0006D6DC       SND_fonha_
 0001:0006D718       snd_cleanup_
 0001:0006DA12       gr_init_bitmap_
 0001:0006DAE6       gr_init_sub_bitmap_unsafe_
 0001:0006DC06       gr_alloc_bitmap_
 0001:0006E1E1       nullsub_19
 0001:0006EE1B       puts_
 0001:0006EE48       _Full_at_exit_rtn_
 0001:0006EE74       atexit_
 0001:0006EEA6       __null_int23_exit_
 0001:0006EEA7       exit_
 0001:0006EEB7       _exit_
 0001:0006EED0       checkHeap
 0001:0006F240       setScr_
 0001:0006F2A0       qf_fn1_
 0001:0006F2E4       reg_keyproc_
 0001:0006F2F0       doreg_keyproc_
 0001:0006F5C0       fazalum_
 0001:0006F6F4       uiSetCurrentSlab_
 0001:0006F709       VID_allocref_
 0001:0006F804       setVideRefShitPtr_
 0001:0006FCBF       open_
 0001:0006FCDE       sopen_
 0001:0006FE88       __set_binary_
 0001:0006FEEE       read_
 0001:0006FFEA       close_
 0001:00070020       __STOSB
 0001:00070057       __STOSD
 0001:00070C10       _bios_timeofday_
 0001:00070C40       _AIL_lock_data
 0001:00070D00       _AIL_24ED00
 0001:00070D50       _AIL_24ED50
 0001:00070D80       _AIL_sample_doido
 0001:00071000       _AIL_dig_callback
 0001:000711F0       _AIL_dig_loucura
 0001:00071680       _AIL_quediabo
 0001:00071780       _AIL_destructor
 0001:00071830       _AIL_install_DIG_driver_intern
 0001:00071E40       _AIL_install_DIG_driver_file
 0001:00071EC0       _AIL_install_DIG_driver_image
 0001:00071F00       _AIL_uninstall_DIG_driver
 0001:00071F10       _AIL_24FF10
 0001:00071F40       _AIL_allocate_sample_handle
 0001:00071FB0       _AIL_release_sample_handle
 0001:00071FC0       _AIL_init_sample
 0001:00072070       _AIL_250070
 0001:00072080       _AIL_250080
 0001:000720B0       _AIL_sample_cock
 0001:000720E0       _AIL_2500E0
 0001:000720F0       _AIL_2500F0
 0001:00072100       _AIL_250100
 0001:00072110       _AIL_sample_fump
 0001:00072130       _AIL_250130
 0001:00072140       _AIL_sample_tanc
 0001:00072160       _AIL_250160
 0001:00072180       _AIL_250180
 0001:000721A0       _AIL_2501A0
 0001:000721C0       _AIL_2501C0
 0001:000721D0       _AIL_start_sample
 0001:00072250       _AIL_stop_sample
 0001:00072270       _AIL_resume_sample
 0001:00072290       _AIL_end_sample
 0001:000722E0       _AIL_register_SOB_callback
 0001:00072300       _AIL_register_EOB_callback
 0001:00072320       _AIL_register_EOS_callback
 0001:00072340       _AIL_set_sample_user_data
 0001:00072360       _AIL_sample_user_data
 0001:00072390       _AIL_250390
 0001:00072410       _AIL_sample_foz
 0001:000724A0       _AIL_2504A0
 0001:00072500       _AIL_unlock_data
 0001:000725B8       getenv_
 0001:00072609       toupper_
 0001:00072617       atoi_
 0001:000726B0       lg_sprintf_
 0001:000726D8       lg_vsprintf_
 0001:00072EE8       lg_sprintf_install_stringfunc_
 0001:00072EF0       int_to_str_
 0001:00072F38       uint_to_str_
 0001:00073128       nullsub_28
 0001:0007358A       chg_exhantarg_
 0001:000740E4       seujoao_
 0001:00074124       seupedro_
 0001:000744A0       set_tmap_affine_
 0001:000744BF       set_tmap_pcorr_
 0001:00074509       RDR_setshading_
 0001:000748B4       R_RenderFloorGD_
 0001:0007490C       R_RenderWall_
 0001:00074938       R_RenderModelAF_
 0001:00074961       R_RenderSlopesAF_
 0001:0007498A       R_RenderSlopesPC_
 0001:000749B3       R_RenderModelPC_
 0001:000749DA       R_RenderLabel
 0001:00074A87       R_DoTexMap_
 0001:00074C9B       skipalot
 0001:00074EDE       doret
 0001:00077592       mouse_shutdown_
 0001:00077626       mouse_init_
 0001:0007776C       mouse_set_screensize_
 0001:00077830       _mouse_update_vel
 0001:000778D5       _mouse_get_xy
 0001:00077935       mouse_put_xy_
 0001:00077AFA       mouse_next_
 0001:00077B9C       mouse_flush_
 0001:00077BDC       mouse_generate_
 0001:00077D23       mouse_set_callback_
 0001:00077E53       mouse_constrain_xy_
 0001:00077F08       set_mouse_mickeys_
 0001:00078034       mouse_set_timestamp_register_
 0001:0007806A       mouse_get_time
 0001:00078098       get_mouse_st_
 0001:00078C72       R_DrawTranspTex_
 0001:0007C150       pixuira_
 0001:0007C20C       j__nfree_
 0001:0007C54C       setPlayerAI_
 0001:0007CCE8       lseek_
 0001:0007CD2A       write_
 0001:0007D9EE       sprintf_
 0001:0007DA21       do_setexhan_
 0001:0007DB09       SYS_initexhan_
 0001:0007DBDC       kb_startup_
 0001:0007DEA4       set_key
 0001:0007DEB4       kb_shutdown_
 0001:0007ED60       MemStackInit_
 0001:0007ED68       MemStackAlloc_
 0001:0007ED8C       MemStackRealloc_
 0001:0007EDA8       MemStackFree_
 0001:0007EDC0       temp_mem_get_stack_
 0001:0007EDC8       temp_mem_init_
 0001:0007EE14       temp_mem_uninit_
 0001:0007EE3C       temp_malloc_
 0001:0007EE64       temp_realloc_
 0001:0007EE7C       temp_free_
 0001:0007EE95       gd_init_
 0001:0007EEF9       gr_set_malloc_
 0001:0007EF09       gr_set_free_
 0001:0007EF19       gd_close_
 0001:0007EF60       SND_pelintra_
 0001:0007EF9C       fool_timer_
 0001:0007EFB0       pray_timer_
 0001:0007EFD4       timer_garrafa_
 0001:0007EFE4       timer_coplom_
 0001:0007F020       timerinc_caller_
 0001:0007F064       reg_timerincproc_
 0001:0007F180       getkbdflags
 0001:0007F18C       setkbdflags
 0001:0007F820       reg_timer_sub_
 0001:0007F8B4       mexe_bios_keybuffer_
 0001:0007F8D4       kb_clear_state_
 0001:0007F923       check_TSR_
 0001:0007FB48       changeCountryKeys_
 0001:0007FE14       shitCOM1
 0001:0007FF41       set_video_groop_
 0001:000801B5       fumbrega_
 0001:00080268       kb_cook_
 0001:00080586       hobbit_
 0001:000805DE       maiabo_
 0001:0008060C       start
 0001:0008060E       aWatcomCC32RunTimeSystem_CCopy
 0001:0008087B       __exit_
 0001:0008087D       __exit_with_msg_
 0001:000808C0       SND_install_mdi_
 0001:00080AC0       _AIL_25EAC0
 0001:00080BC0       _AIL_25EBC0
 0001:00080C20       _AIL_25EC20
 0001:00080C70       _AIL_25EC70
 0001:00080D90       _AIL_25ED90
 0001:00080E50       _AIL_25EE50
 0001:00080E80       _AIL_25EE80
 0001:00080EC0       _AIL_25EEC0
 0001:00080FE0       _AIL_25EFE0
 0001:00081160       _AIL_25F160
 0001:00081320       _AIL_25F320
 0001:00081770       _AIL_25F770
 0001:00081840       _AIL_25F840
 0001:000818F0       _AIL_25F8F0
 0001:00081B00       _AIL_25FB00
 0001:00081BB0       _AIL_25FBB0
 0001:00081BD0       _AIL_25FBD0
 0001:00081C10       _AIL_timer_sub1
 0001:0008202E       _AIL_26002E
 0001:00082350       _AIL_260350
 0001:00082420       _AIL_260420
 0001:000824A0       _AIL_install_MDI_driver_intern
 0001:00082B30       _AIL_install_MDI_driver_file
 0001:00082BB0       _AIL_install_MDI_driver_image
 0001:00082BF0       _AIL_uninstall_MDI_driver
 0001:00082C00       _AIL_260C00
 0001:00082C80       _AIL_260C80
 0001:00082D00       _AIL_260D00
 0001:00082D20       _AIL_260D20
 0001:000830B0       _AIL_2610B0
 0001:000830F0       _AIL_2610F0
 0001:000831B0       _AIL_2611B0
 0001:00083230       _AIL_261230
 0001:00083260       _AIL_261260
 0001:00083270       _AIL_261270
 0001:000832E0       _AIL_2612E0
 0001:00083360       _AIL_261360
 0001:00083370       _AIL_261370
 0001:00083390       _AIL_261390
 0001:000833A0       _AIL_2613A0
 0001:000833B0       _AIL_2613B0
 0001:000833F0       _AIL_2613F0
 0001:000834F0       _AIL_2614F0
 0001:00083530       _AIL_261530
 0001:00083570       _AIL_261570
 0001:000835A0       _AIL_2615A0
 0001:000835D0       _AIL_2615D0
 0001:00083610       _AIL_261610
 0001:00083680       _AIL_261680
 0001:00083710       _AIL_261710
 0001:00083730       _AIL_261730
 0001:00083750       _AIL_261750
 0001:00083770       _AIL_261770
 0001:00083790       _AIL_261790
 0001:000837B0       _AIL_2617B0
 0001:000837D0       _AIL_2617D0
 0001:000837F0       _AIL_2617F0
 0001:00083800       _AIL_261800
 0001:000839B0       _AIL_2619B0
 0001:00083AE0       _AIL_261AE0
 0001:00083B20       _AIL_261B20
 0001:00083B40       _AIL_261B40
 0001:00083BF0       _AIL_261BF0
 0001:00083C80       _AIL_261C80
 0001:00083D74       __open_flags_
 0001:00083EEE       _fsopen_
 0001:00083F09       fopen_
 0001:00083F78       freopen_
 0001:00083F9C       fread_
 0001:000840E2       fclose_
 0001:0008410C       __shutdown_stream_
 0001:0008412D       __MkTmpFile_
 0001:00084198       __doclose_
 0001:00084230       SND_install_dig_
 0001:000842E4       feblencia_
 0001:00084C80       region_test_rect_
 0001:00084CB4       RectSect_
 0001:00084DC4       region_test_pt_
 0001:00084DF8       RectMove_
 0001:000855DC       get_kbdqueuepos_
 0001:000855F0       mono_detect_
 0001:00085620       mono_setmode_
 0001:00085650       mono_set_flags_
 0001:00085688       mono_win_init_
 0001:00085720       mono_logon_
 0001:000857B0       mono_logoff_
 0001:000857D4       mono_logdel_
 0001:0008581C       _mono_init_page_
 0001:000858E4       _maddr_
 0001:0008593C       _mget_
 0001:000859D8       _mset_
 0001:00085A38       _out_of_win_
 0001:00085A9C       _mono_top_
 0001:00085AEC       mget_
 0001:00085B60       mput_
 0001:00085BD0       _mwin_set_
 0001:00085D98       mono_split_
 0001:00085E3C       mono_unsplit_
 0001:00085E7C       mono_setwin_
 0001:00085EFC       mono_getwin_
 0001:00085F1C       mono_setpage_
 0001:00085F94       mono_getpage_
 0001:00085FA0       mono_setfocus_
 0001:00086088       mono_getfocus_
 0001:00086094       mono_scr_disable_
 0001:000860A4       mono_scr_enable_
 0001:000860B4       mono_cursor_
 0001:000860F8       mono_flip_
 0001:0008611C       mono_unflip_
 0001:00086148       mono_setattr_
 0001:00086150       mono_setxy_
 0001:000861FC       mono_getxy_
 0001:0008620C       mono_clear_
 0001:000862EC       mono_scroll_
 0001:000865E0       _mono_log_
 0001:0008662C       _mscroll_msg_
 0001:000867AC       _mscroll_us_
 0001:00086824       _mprint_
 0001:00086998       mprintf_
 0001:00086A58       mprint_
 0001:00086AE8       mono_dump_
 0001:000872B2       strrchr_
 0001:000873CB       tolower_
 0001:000873DC       _dos_getdiskfree_
 0001:00087410       jumbo_
 0001:000874B0       nullsub_21
 0001:000874B4       chinafunc_
 0001:00088544       faropa_
 0001:00088FF8       nullsub_15
 0001:0008A5FE       fantauva_
 0001:0008A66C       libstk_001
 0001:0008A673       __CHK
 0001:0008A683       __GRO
 0001:0008A686       __STK
 0001:0008A6A3       __STKOVERFLOW_
 0001:0008C1EE       getVideoMem_
 0001:0008C220       cursor_draw_callback_
 0001:0008C370       bitmap_cursor_drawfunc_
 0001:0008C887       stricmp_
 0001:0008C8BE       tell_
 0001:0008D520       _AIL_26B520
 0001:0008D592       _AIL_26B592
 0001:0008D5BE       _AIL_26B5BE
 0001:0008D5C8       _AIL_26B5C8
 0001:0008D626       _AIL_26B626
 0001:0008D87D       _AIL_26B87D
 0001:0008D88D       _AIL_26B88D
 0001:0008D965       _AIL_allocate_file_sample
 0001:0008DA90       _AIL_26BA90
 0001:0008DB68       _AIL_26BB68
 0001:0008DB83       _AIL_26BB83
 0001:0008DBAD       malloc_
 0001:0008DC25       free_
 0001:0008DC49       _nrealloc_
 0001:0008DCCE       int386_
 0001:0008DCF0       DbgReportError_
 0001:0008DD28       DbgReportWarnUser_
 0001:0008DD7C       DbgGetKey_
 0001:0008DDA8       DbgSetReportRoutine_
 0001:0008DDB0       DbgHandle_
 0001:0008DDE8       DbgHandleC_
 0001:0008DE70       array_init_
 0001:0008DECC       array_grow_
 0001:0008DF6C       array_newelem_
 0001:0008DFC4       array_dropelem_
 0001:0008DFEC       array_destroy_
 0001:0008E01C       kb_next_
 0001:0008E05E       eof_
 0001:0008E08A       strnicmp_
 0001:0008E2C0       quefria_
 0001:0008E5E0       quecoisa_
 0001:0008E6BA       getcwd_
 0001:0008E743       chdir_
 0001:0008E7B4       tmpnam_
 0001:0008E824       j_unlink_
 0001:0008E829       rename_
 0001:0008E84E       strpbrk_
 0001:0008E894       _dos_findfirst_
 0001:0008E8B1       _dos_findnext_
 0001:0008E8CD       _dos_findclose_
 0001:0008E8D0       lib_26C8D0
 0001:0008E8F3       lib_26C8F3
 0001:0008E916       __get_errno_ptr_
 0001:0008E922       strlen_
 0001:0008E93B       strcpy_
 0001:0008E95C       _AIL_lock_stuff
 0001:0008E9E5       _AIL_timer_sub2
 0001:0008EA34       _AIL_set_var
 0001:0008EA4D       _AIL_install_driver
 0001:0008EC7D       _AIL_uninstall_driver
 0001:0008ED20       _AIL_get_IO_environment
 0001:0008ED8F       _AIL_startup
 0001:0008EE95       _AIL_shutdown
 0001:0008EEC2       _AIL_unlock_stuff
 0001:0008FDBC       fputs_
 0001:0008FE34       fputc_
 0001:00090049       isatty_
 0001:00090066       _dosret0_
 0001:0009006D       _dosretax_
 0001:00090072       __EINVAL_
 0001:00090083       _set_errno_
 0001:000900EE       __IOMode_
 0001:00090139       __SetIOMode_
 0001:00090158       _AIL_26E158
 0001:000901A8       _AIL_mem_use_malloc
 0001:000901B8       _AIL_mem_use_free
 0001:000901C8       _AIL_mem_alloc_lock
 0001:000901F0       _AIL_mem_free_lock
 0001:00090214       _AIL_mem_alloc_DOS
 0001:0009029C       _AIL_mem_free_DOS
 0001:000902C8       _AIL_vmm_lock_range
 0001:00090334       _AIL_vmm_unlock_range
 0001:000903A0       _AIL_vmm_lock
 0001:000903B8       _AIL_vmm_unlock
 0001:000903D0       _AIL_26E3D0
 0001:00090514       _AIL_26E514
 0001:00090A9C       _AIL_26EA9C
 0001:00090AA4       _AIL_file_size
 0001:00090AF0       _AIL_file_read
 0001:00090BAC       _AIL_file_write
 0001:00090C30       _AIL_file_append
 0001:00090CB0       _AIL_mixfuncs
 0001:00090EB0       _AIL_mixfuncs2
 0001:000910B0       _AIL_26F0B0
 0001:000910C1       _AIL_26F0C1
 0001:000910CD       _AIL_26F0CD
 0001:000910EC       _AIL_26F0EC
 0001:00091100       _AIL_26F100
 0001:0009111F       _AIL_26F11F
 0001:00091133       _AIL_26F133
 0001:00091150       _AIL_26F150
 0001:00091162       _AIL_26F162
 0001:0009117F       _AIL_26F17F
 0001:00091191       _AIL_26F191
 0001:000911A5       _AIL_26F1A5
 0001:000911B4       _AIL_26F1B4
 0001:000911CA       _AIL_26F1CA
 0001:000911DB       _AIL_26F1DB
 0001:000911FC       _AIL_26F1FC
 0001:00091212       _AIL_26F212
 0001:00091233       _AIL_26F233
 0001:00091249       _AIL_26F249
 0001:0009126E       _AIL_26F26E
 0001:00091288       _AIL_26F288
 0001:000912AD       _AIL_26F2AD
 0001:000912C7       _AIL_26F2C7
 0001:000912EA       _AIL_26F2EA
 0001:00091302       _AIL_26F302
 0001:00091325       _AIL_26F325
 0001:0009133D       _AIL_26F33D
 0001:00091364       _AIL_26F364
 0001:00091380       _AIL_26F380
 0001:000913A7       _AIL_26F3A7
 0001:000913C3       _AIL_26F3C3
 0001:000913F0       _AIL_26F3F0
 0001:00091418       _AIL_26F418
 0001:00091471       _AIL_26F471
 0001:000914BF       _AIL_26F4BF
 0001:00091518       _AIL_26F518
 0001:00091566       _AIL_26F566
 0001:000915BD       _AIL_26F5BD
 0001:00091609       _AIL_26F609
 0001:00091660       _AIL_26F660
 0001:000916AC       _AIL_26F6AC
 0001:000916DC       _AIL_26F6DC
 0001:00091707       _AIL_26F707
 0001:00091739       _AIL_26F739
 0001:00091766       _AIL_26F766
 0001:000917C1       _AIL_26F7C1
 0001:00091811       _AIL_26F811
 0001:0009186C       _AIL_26F86C
 0001:000918BC       _AIL_26F8BC
 0001:0009191B       _AIL_26F91B
 0001:0009196F       _AIL_26F96F
 0001:000919CE       _AIL_26F9CE
 0001:00091A22       _AIL_26FA22
 0001:00091A7F       _AIL_26FA7F
 0001:00091AD1       _AIL_26FAD1
 0001:00091B2E       _AIL_26FB2E
 0001:00091B80       _AIL_26FB80
 0001:00091BE1       _AIL_26FBE1
 0001:00091C37       _AIL_26FC37
 0001:00091C98       _AIL_26FC98
 0001:00091CEE       _AIL_26FCEE
 0001:00091D0F       _AIL_26FD0F
 0001:00091D33       _AIL_26FD33
 0001:00091D5F       _AIL_26FD5F
 0001:00091D91       _AIL_26FD91
 0001:00091DBD       _AIL_26FDBD
 0001:00091DEF       _AIL_26FDEF
 0001:00091E13       _AIL_26FE13
 0001:00091E3A       _AIL_26FE3A
 0001:00091E68       _AIL_26FE68
 0001:00091E9C       _AIL_26FE9C
 0001:00091ECA       _AIL_26FECA
 0001:00091EFE       _AIL_26FEFE
 0001:00091F1A       _AIL_26FF1A
 0001:00091F39       _AIL_26FF39
 0001:00091F5A       _AIL_26FF5A
 0001:00091F81       _AIL_26FF81
 0001:00091FA2       _AIL_26FFA2
 0001:00091FC9       _AIL_26FFC9
 0001:00091FE8       _AIL_26FFE8
 0001:0009200A       _AIL_27000A
 0001:0009202D       _AIL_27002D
 0001:00092056       _AIL_270056
 0001:00092079       _AIL_270079
 0001:000920A2       _AIL_2700A2
 0001:000920CE       _AIL_2700CE
 0001:000920FD       _AIL_2700FD
 0001:00092137       _AIL_270137
 0001:00092177       _AIL_270177
 0001:000921B1       _AIL_2701B1
 0001:000921F1       _AIL_2701F1
 0001:00092223       _AIL_270223
 0001:00092258       _AIL_270258
 0001:00092294       _AIL_270294
 0001:000922D6       _AIL_2702D6
 0001:00092312       _AIL_270312
 0001:00092354       _AIL_270354
 0001:0009237B       _AIL_27037B
 0001:000923A5       _AIL_2703A5
 0001:000923D4       _AIL_2703D4
 0001:00092409       _AIL_270409
 0001:00092438       _AIL_270438
 0001:0009246D       _AIL_27046D
 0001:0009249A       _AIL_27049A
 0001:000924CA       _AIL_2704CA
 0001:000924FB       _AIL_2704FB
 0001:00092532       _AIL_270532
 0001:00092563       _AIL_270563
 0001:0009259A       _AIL_27059A
 0001:000925B6       _AIL_2705B6
 0001:000925DC       _AIL_2705DC
 0001:000925FD       _AIL_2705FD
 0001:00092628       _AIL_270628
 0001:00092649       _AIL_270649
 0001:00092674       _AIL_270674
 0001:00092693       _AIL_270693
 0001:000926BC       _AIL_2706BC
 0001:000926DE       _AIL_2706DE
 0001:0009270A       _AIL_27070A
 0001:0009272C       _AIL_27072C
 0001:00092758       _AIL_270758
 0001:0009277F       _AIL_27077F
 0001:000927B0       _AIL_2707B0
 0001:000927DF       _AIL_2707DF
 0001:00092818       _AIL_270818
 0001:00092847       _AIL_270847
 0001:00092880       _AIL_270880
 0001:000928AD       _AIL_2708AD
 0001:000928E4       _AIL_2708E4
 0001:00092914       _AIL_270914
 0001:0009294E       _AIL_27094E
 0001:0009297E       _AIL_27097E
 0001:000929B8       _AIL_sample_domix
 0001:00092BBD       _AIL_dig_domix
 0001:00092C4F       _AIL_dig_zero_buffer
 0001:00092C7B       _AIL_lockdata
 0001:00092CAC       _AIL_inctimersemaph
 0001:00092CB9       _AIL_dectimersemaph
 0001:00092CC6       _AIL_API_timer
 0001:00092DEC       _AIL_change_timer
 0001:00092E1C       _AIL_timer_chg_caller
 0001:00092E4F       _AIL_adjust_systimerfreq
 0001:00092EB4       _AIL_hook_timer_process
 0001:00092FA2       _AIL_unhook_timer_process
 0001:00092FDD       _AIL_getrmint
 0001:00093009       _AIL_setrmint
 0001:00093030       _AIL_271030
 0001:0009307A       _AIL_27107A
 0001:00093085       _AIL_271085
 0001:0009329B       _AIL_setintvec
 0001:000932E0       _AIL_do_cli
 0001:000932E4       _AIL_restore_intflag
 0001:000932F9       _AIL_2712F9
 0001:0009332F       _AIL_27132F
 0001:0009334B       _AIL_call_driver
 0001:00093425       _AIL_vsync
 0001:00093462       _AIL_271462
 0001:0009346E       _AIL_register_timer
 0001:000934B5       _AIL_set_timer_user
 0001:000934DD       _AIL_release_timer_handle
 0001:00093504       _AIL_release_all_timers
 0001:00093528       _AIL_start_timer
 0001:00093558       _AIL_start_all_timers
 0001:0009357C       _AIL_stop_timer
 0001:000935AC       _AIL_stop_all_timers
 0001:000935D0       _AIL_set_timer_period
 0001:00093600       _AIL_set_timer_frequency
 0001:00093630       _AIL_set_timer_divisor
 0001:00093672       _AIL_271672
 0001:0009367E       _AIL_27167E
 0001:000936A3       tmap1_func_
 0001:00093B38       tmap3_func_
 0001:00093FE0       exhan_
 0001:000940B9       exhan_t1_
 0001:00094239       exhan_hom_
 0001:0009423E       ex_praca
 0001:000942EC       some_instr
 0001:000942FD       exhan_size
 0001:00094300       add_exfinal_
 0001:000943A0       tmap2_func_
 0001:00094928       comoba_
 0001:00094FA0       ximbioca_
 0001:000950C9       label_ximbioca
 0001:000950DD       fintilicia_
 0001:000955FF       HMD_detect
 0001:000956F4       comshit1_
 0001:000957B5       memcpy_
 0001:00096626       int386x_
 0001:00096650       mouse_routine_
 0001:00097110       nullsub_27
 0001:00097A54       stackavail_
 0001:00097A5D       chsize_
 0001:00097B20       __prtf_
 0001:000983F0       exhan_blap_
 0001:00098520       int_09_hook_
 0001:0009867C       fgetc_
 0001:000986EA       __filbuf_
 0001:0009870C       __fill_buffer_
 0001:000987AB       fillgoodvmodes_
 0001:00098890       gr_push_video_state_
 0001:000988BB       gr_pop_video_state_
 0001:00098C0C       cby_shitcom_
 0001:00099649       squatina01_
 0001:0009A0F7       gonhonho_
 0001:0009A1EF       pizza_timer_
 0001:0009A8F3       setKbdLEDs_
 0001:0009A986       __CMain
 0001:0009A9D0       nullsub_25
 0001:0009A9D2       __InitRtns
 0001:0009AA15       __FiniRtns
 0001:0009AA58       __Init_Argv_
 0001:0009ABE0       SND_getfilnam_
 0001:0009AC34       SND_getblaster_
 0001:0009AD80       SND_xingaman_
 0001:0009ADF0       SND_pirambu_
 0001:0009AE14       fseek_
 0001:0009AFBC       __allocfp_
 0001:0009B052       __freefp_
 0001:0009B082       __purgefp_
 0001:0009B0A2       __chktty_
 0001:0009B0C7       __ioalloc_
 0001:0009B132       __qread_
 0001:0009B156       __flush_
 0001:0009B1F0       ftell_
 0001:0009B47E       nullsub_16
 0001:000A1FBB       riveira_
 0001:000A2297       gd_hflip_in_place_
 0001:000A23CC       __MemAllocator
 0001:000A247C       __MemFree
 0001:000A2587       libgrownear_001
 0001:000A260E       libgrownear_002
 0001:000A2625       libgrownear_003
 0001:000A26AF       __FreeDPMIBlocks_
 0001:000A2717       __ExpandDPMIBlock_
 0001:000A2846       __LastFree_
 0001:000A2895       libgrownear_004
 0001:000A2981       __ExpandDGROUP_
 0001:000A2B1B       _nmsize_
 0001:000A2B24       _nexpand_
 0001:000A2C62       segread_
 0001:000A2C8A       getch_
 0001:000A2CB0       Exit_
 0001:000A2CDC       SetExitMsg__
 0001:000A2D00       PrintExitMsg_
 0001:000A2D31       filelength_
 0001:000A2D6E       access_
 0001:000A2DA9       unlink_
 0001:000A2DC6       __setbits_
 0001:000A2DFC       __doserror_
 0001:000A2E0F       __setenvp_
 0001:000A5010       __int386x_
 0001:000A506B       _DoINTR_
 0001:000A53E8       _chain_intr_
 0001:000A5401       _Not_Enough_Memory_
 0001:000A5412       a123456789abc_0
 0001:000A5436       ultoa_
 0001:000A547E       ltoa_
 0001:000A54A0       int9_exitgame
 0001:000A550E       flushall_
 0001:000A5513       __flushall_
 0001:000A5542       getche_
 0001:000A5560       VBEInit_
 0001:000A5829       inp_
 0001:000A5831       outp_
 0001:000A5955       refresh_screen_
 0001:000A6348       __CommonInit_
 0001:000A6353       __InitFiles_
 0001:000A639A       __full_io_exit_
 0001:000A63A6       fcloseall_
 0001:000A63F2       __qwrite_
 0001:000A6799       outpw_
 0001:000A6AF4       store_video_
 0001:000A7203       popaia_
 0001:000A7242       vilopa_
 0001:000A8D0A       castigo_screen_
 0001:000A905B       VID_CallRefresh1_
 0001:000A9149       VID_PreCallRefresh1_
 0001:000AA173       peido_screen_
 0001:000AB711       emptyfn1_
 0001:000AF850       sembeira_beta_
 0001:000AF960       sembeira_alpha_
 0001:000AFA60       sembeira_
 0001:000AFB10       sembeira_gamma_
 0001:000B9515       beli_screen_
 0001:000B9550       ponha_screen_
 0001:000BA8CF       fiborreia_
 0001:000C002D       _heapenable_
 0001:000C003D       sbrk_
 0001:000C00D9       __brk_
 0001:000C0184       abs_
 0001:000C493B       respeito_
 0001:000C4BC9       besteira_
 0001:000C8110       oma_screen_
 0001:000C84A0       vga_set_mode_
 0001:000C85B0       vga_restore_state_
 0001:000C8750       vga_save_state_
 0001:000C8930       vga_stat_htrace_
 0001:000C893C       vga_stat_vtrace_
 0001:000C894C       vga_set_pal_
 0001:000C8970       vga_get_pal_
 0001:000C8994       vga_set_focus_
 0001:000C89DC       vga_get_focus_
 0001:000C89E0       vga_set_width_
 0001:000C89F0       vbe_init_
 0001:000C8A10       vbe_set_mode_
 0001:000C8B1A       printf_
 0001:000C8B3E       pixelshit1_
 0001:000C8C31       pixelshit2_
 0001:000C8CAB       pixelshit3_
 0001:000C8D29       pixelshit4_
 0001:000C8DB0       pixelshit5_
 0001:000C8E55       pixelshit6_
 0001:000C8F00       pixelshit7_
 0001:000C8FCE       pixelshit8_
 0001:000C9067       pixelshit9_
 0001:000C911D       pixelshit10_
 0001:000C91A8       pixelshit11_
 0001:000C9299       drawShit1_
 0001:000C956A       readScreenShit_
 0001:000C9728       drawShit2_
 0001:000C9A09       drawShit3_
 0001:000C9EB0       VID_get_svga_gran
 0001:000C9F18       __fprtf_
 0001:000CC039       drawShit4_
 0001:000CC0ED       drawShit5_
 0001:000CC1BE       drawShit6_
 0001:000CC263       pixelshit12_
 0001:000CC2E4       pixelshit13_
 0001:000CC383       drawShit7_
 0001:000CC42C       drawShit8_
 0001:000CC4F5       pixelshit14_
 0001:000CC57A       pixelshit15_
 0001:000CDE48       drawShit9_
 0001:000CEBD0       VID_set_svga_window
 0003:00000008       aCitbark_res
 0003:00000014       aFrnbark_res
 0003:00000020       aGerbark_res
 0003:0000002C       aCitalog_res
 0003:00000038       aFrnalog_res
 0003:00000044       aGeralog_res
 0003:00000058       aMono_debug
 0003:00000063       aFault_off_0
 0003:0000006D       a@switch
 0003:00000076       aFault_on
 0003:0000007F       aKb_chain_1
 0003:00000088       aIntro
 0003:0000008E       aMem_check_0
 0003:00000098       aSelfrun
 0003:000000A0       aMono_log
 0003:000000A9       aCursor_check
 0003:000000B6       aCyb_cfg
 0003:000000C0       aTest
 0003:000000C5       aConfigurationE
 0003:000000D9       aResourceError
 0003:000000E8       aMemoryError
 0003:000000F5       aFileError
 0003:00000100       aExecutionError
 0003:00000110       aGeneralFailure
 0003:00000120       aThereIsNoCause
 0003:00000153       aMouseDriverNot
 0003:0000016F       aCouldNotOpenSt
 0003:0000018F       aCouldNotOpenGa
 0003:000001B4       aCouldNotOpenMf
 0003:000001D1       aCouldNotFindHa
 0003:000001EA       aCouldNotFindPa
 0003:00000225       aCouldNotOpenOb
 0003:00000249       aCouldNotOpenSi
 0003:00000270       aCouldNotOpenTe
 0003:00000295       aCouldNotFindCa
 0003:000002BD       aCouldNotOpen3d
 0003:000002DF       aCouldNotInit_0
 0003:00000303       aCouldNotFindLe
 0003:00000321       aBadObjectPrope
 0003:00000347       aOutOfMemoryAll
 0003:00000365       aNotEnoughMemor
 0003:00000384       aNotEnoughMem_0
 0003:000003B0       aNotEnoughMem_1
 0003:000003D8       aNotEnoughMem_2
 0003:00000401       aNotEnoughMem_3
 0003:0000042A       aNotEnoughMem_4
 0003:00000452       aFrameBufferToo
 0003:00000474       aNotEnoughCache
 0003:0000049C       aCouldNotLoadLe
 0003:000004B7       aCouldNotLoad_0
 0003:000004DA       aCouldNotFindCo
 0003:000004FD       aUnknownSaveGam
 0003:00000518       aUnknownLevelCh
 0003:0000053E       aCorruptedSaveG
 0003:00000554       aErrorSavingGam
 0003:00000588       aErrorCreatingI
 0003:000005C6       aCannotRunDirec
 0003:00000604       aUnknownPhysics
 0003:0000061C       aCommonProblemS
 0003:00000636       aIncreaseFilesI
 0003:00000664       aDisableSmartdr
 0003:00000685       aUseAMinimalCon
 0003:000006B1       aIfNoneOfTheseW
 0003:000006E1       a5123350440
 0003:000006F0       aSystemShock
 0003:000006FD       aCanNoLongerRun
 0003:00000726       aErrorCode
 0003:00000734       aIntrothm_xmi
 0003:00000741       aEnd_xmi
 0003:0000074A       aLowres_cutscen
 0003:0000075B       aCutspal_res
 0003:00000768       aIpal_dat
 0003:00000774       aCyberspace
 0003:00000784       aTexture_res
 0003:00000790       aHandart_res
 0003:0000079C       aObjart2_res_0
 0003:000007A8       aObjart3_res_0
 0003:000007B4       aDamage_seed
 0003:000007C0       aGrenade_seed
 0003:000007CD       aObj_make_seed
 0003:000007DB       aEffect_seed
 0003:000007E8       aDigiparm_bin
 0003:000007F8       aCithome_0
 0003:00000800       a__1
 0003:00000802       aData_1
 0003:00000808       aData_dir_path
 0003:00000816       aCd_data_dir_pa
 0003:00000834       aSvgaModeSwitch
 0003:00000848       aCybstrng_res
 0003:00000855       aFrnstrng_res
 0003:00000862       aGerstrng_res
 0003:0000086F       aLanguage
 0003:00000878       aStrings
 0003:00000884       aFatigue
 0003:0000088C       aCurrsave_dat
 0003:0000089B       aCithome
 0003:000008A3       aData
 0003:000008AD       a____
 0003:000008B3       _game_version
 0003:000008BA       a0000_00S
 0003:000008CC       aMfdart_res
 0003:000008D7       aMfdfrn_res
 0003:000008E2       aMfdger_res
 0003:000008ED       aNorun
 0003:000008F3       aFault_off
 0003:000008FD       aSplash_res
 0003:00000908       aArchive
 0003:00000910       aArchive_dat
 0003:0000091C       aMem_check
 0003:00000927       aKb_chain
 0003:00000930       aGamepal_res
 0003:0000093C       aGamescr_res
 0003:00000948       aObj3d_res
 0003:00000952       aCitmat_res
 0003:0000095D       aDigifx_res
 0003:00000968       aVf1_6c
 0003:0000096F       aThanksForPlayi
 0003:00000994       aOurSystemHasBe
 0003:000009D8       aDclick_time
 0003:000009E4       aInp6d
 0003:000009EA       aInp6d_hdouble
 0003:000009F8       aInp6d_pdouble
 0003:00000A06       aInp6d_bdouble
 0003:00000A14       aInp6d_force
 0003:00000A20       aInp6d_stereo
 0003:00000A2D       aInp6d_doom
 0003:00000A38       aJoystick
 0003:00000A47       aHeadsetRecente
 0003:00000A5A       aGammaLowered
 0003:00000A68       aGammaMaxedOut
 0003:00000A78       aGammaRaised
 0003:00000A8C       a_
 0003:00000A98       a06d
 0003:00000AA4       a07d
 0003:00000AA9       a06d_0
 0003:00000AB0       aD_0
 0003:00000AB3       aSS_0
 0003:00000AB8       a03d
 0003:00000AC0       aRb
 0003:00000AC4       aCountry
 0003:00000AD0       a_xmi
 0003:00000AD8       a_dat
 0003:00000AE0       a_bin
 0003:00000AE8       aCard
 0003:00000AF0       aIrq
 0003:00000AF4       aDma
 0003:00000AF8       aIo
 0003:00000AFC       aDrq
 0003:00000B00       aMidi_
 0003:00000B08       aDigi_
 0003:00000B10       aSound_dir_path
 0003:00000B20       aGenmidi
 0003:00000B29       aSblaster
 0003:00000B38       aCd_sound_dir_p
 0003:00000B4C       aSoundCit
 0003:00000B58       aObjart_res
 0003:00000B64       aGackL1ButtonBu
 0003:00000B90       aObjprop_dat
 0003:00000B9C       aObjart2_res
 0003:00000BA8       aObjart3_res
 0003:00000BB6       aS_1
 0003:00000BBB       aSS
 0003:00000BC3       aSD
 0003:00000BD8       aPageGoof
 0003:00000BE8       aTime_passes
 0003:00000BF4       aKb_chain_0
 0003:00000C00       aTitloop_xmi
 0003:00000C0C       aEndloop_xmi
 0003:00000C18       a0123456789Abcd
 0003:00000C5A       aInvalidGame
 0003:00000C6D       aVf1_6c_0
 0003:00000C74       aBadVersion
 0003:00000C86       aS
 0003:00000C8F       aIntro_res
 0003:00000C99       aInit_savegame
 0003:00000CA8       aHeyInittingSte
 0003:00000CBF       aStereoStartup
 0003:00000CCF       aStereoExit
 0003:00000CDC       aStereo
 0003:00000CE4       a2_2fm
 0003:00000CEC       aShadtabl_dat
 0003:00000CF9       aBwtabl_dat
 0003:00000D04       aTextprop_dat
 0003:00000D14       aShock000_gif
 0003:00000D21       aGifDumpFailed
 0003:00000D32       aSaved
 0003:00000D3A       aGen
 0003:00000D3E       aGen_dir
 0003:00000D46       aCithome_1
 0003:00000D4E       aGen_0
 0003:00000D58       aVidmail_res
 0003:00000D67       aJoystick_0
 0003:00000D70       aGameSaveFailed
 0003:00000D9C       aRes
 0003:00000DA0       aMalloccheckedO
 0003:00000DD4       aReallocchecked
 0003:00000E10       a@switch_0
 0003:00000E24       aClr
 0003:00000E28       aMinimumDmaBuff
 0003:00000E54       aCouldNotAllo_1
 0003:00000E7C       a_digDriverRequ
 0003:00000E94       aDigitalSoundHa
 0003:00000EB8       aCouldNotAllo_2
 0003:00000ED8       aCouldNotAllo_3
 0003:00000EFC       aCouldNotAllo_4
 0003:00000F24       aOutOfTimerHa_0
 0003:00000F3C       aDriverFileNo_0
 0003:00000F54       aOutOfSampleHan
 0003:00000F6C       aFalse
 0003:00000F74       aTrue
 0003:00000F7C       aForm
 0003:00000F81       aSizcat
 0003:00000F8C       aXmid
 0003:00000F94       aInternalNoteQu
 0003:00000FB4       aCouldNotAlloca
 0003:00000FDC       a_mdiDriverRequ
 0003:00000FF4       aXmidiSoundHard
 0003:00001014       aCouldNotInitia
 0003:0000103D       aT
 0003:00001040       aCouldNotAllo_0
 0003:00001068       aOutOfTimerHand
 0003:00001080       aDriverFileNotF
 0003:00001098       aOutOfSequenceH
 0003:000010B4       aInvalidXmidiSe
 0003:000010CC       aTimb
 0003:000010D4       aRbrn
 0003:000010DC       aEvnt
 0003:000010E4       aDriverCouldNot
 0003:00001118       aDriverCouldN_0
 0003:00001154       aMprintf_log
 0003:00001160       aMono_dmp
 0003:00001170       aFmt
 0003:00001175       aData_0
 0003:0000117A       aCreative
 0003:00001183       aWave
 0003:00001188       aUnrecognized_0
 0003:000011AE       aInvalidOrMissi
 0003:000011CD       aUnrecognizedDi
 0003:000011F8       aWarning
 0003:00001204       aWarnUser
 0003:00001210       aError
 0003:00001218       a_tmp
 0003:00001220       aInsufficientMe
 0003:0000124B       aInsufficientLo
 0003:00001264       aAil3dig
 0003:0000126C       aAil3mdi
 0003:00001274       aInvalidDriverT
 0003:00001289       aOutOfDriverHan
 0003:000012A0       aOutOfTimerHa_1
 0003:000012B8       aLx
 0003:000012BC       aIntegerDivideE
 0003:000012D4       aInvalidOpcode
 0003:000012E4       aDoubleFault
 0003:000012F4       aStackFault
 0003:00001300       aGeneralProtect
 0003:0000131C       aPageFault
 0003:00001328       aUserBreakout
 0003:00001338       aS_4
 0003:0000133D       aException02x
 0003:0000134E       aEax08xEbx08xEc
 0003:00001381       aEsi08xEdi08xEb
 0003:000013B4       aEip08xErr08xEf
 0003:000013E7       aCs04xDs04xEs04
 0003:00001420       aNull_mdi
 0003:0000142C       aSblaster_mdi
 0003:0000143C       aSbpro1_mdi
 0003:00001448       aSbpro2_mdi
 0003:00001454       aAdlib_mdi
 0003:00001460       aMt32mpu_mdi
 0003:0000146C       aPcspkr_mdi
 0003:00001478       aTandy_mdi
 0003:00001484       aPas_mdi
 0003:0000148C       aPasplus_mdi
 0003:00001498       aAdlibg_mdi
 0003:000014A4       aUmid_mdi
 0003:000014B0       aMpu401_mdi
 0003:000014BC       aSbawe32_mdi
 0003:000014C8       aSndscape_mdi
 0003:000014D8       aSblaster_dig
 0003:000014E5       aBlasbpro_dig
 0003:000014F4       aSb16_dig
 0003:000014FD       aI_0
 0003:00001500       aUmid_dig
 0003:00001509       aI_1
 0003:0000150C       aSndscape_dig
 0003:00001519       aT32rap10_dig
 0003:00001528       aBlaster
 0003:00001530       aThrowarrCount0
 0003:00001548       aFloatingPointS
 0003:00001573       aPrev
 0003:00001578       aBlkRw
 0003:00001581       aType
 0003:00001586       aBlkRo
 0003:0000158F       aS_0
 0003:00001598       aSX
 0003:0000159F       aS_5
 0003:000015A3       aOffset
 0003:000015AA       aDtor
 0003:000015AF       aDtorOffset
 0003:000015BB       aObject
 0003:000015C2       aDtorAddr
 0003:000015CC       aTypeSig
 0003:000015D5       aSize
 0003:000015DA       aCtorCopy
 0003:000015E4       aCtorDef
 0003:000015ED       aClass
 0003:000015F3       aReference
 0003:000015FD       a___
 0003:00001602       aVoid
 0003:00001609       aScalar
 0003:00001617       aCdtor
 0003:0000161D       aCtored
 0003:00001624       aCount_m
 0003:0000162C       aCount_b
 0003:00001634       aCount_v
 0003:0000163C       aVobjDtor
 0003:00001646       aArray
 0003:0000164C       aCount
 0003:00001652       aBlk
 0003:00001656       aFlags
 0003:00001660       aVobjCtor
 0003:0000166A       aDobjCtor
 0003:00001674       aArrCtor
 0003:0000167D       aArrDtor
 0003:00001686       aTry
 0003:0000168A       aJmpbuf
 0003:00001691       aFnexc
 0003:00001697       aDobjDtor
 0003:000016A1       aS_3
 0003:000016A5       aAutoDtorList
 0003:000016B5       aModuleDtorList
 0003:00001E6E       aSvgadeth_res
 0003:00001F6D       aSvgaintr_res
 0003:0000206C       aSvgaend_res
 0003:0000216B       aSvgadeth_res_1
 0003:0000226A       aSvfrintr_res
 0003:00002369       aSvgaend_res_0
 0003:00002468       aSvgadeth_res_0
 0003:00002567       aSvgeintr_res
 0003:00002666       aSvgaend_res_1
 0003:00002765       aLowdeth_res
 0003:00002864       aLowintr_res
 0003:00002963       aLowend_res
 0003:00002A62       aLowdeth_res_0
 0003:00002B61       aLofrintr_res
 0003:00002C60       aLowend_res_0
 0003:00002D5F       aLowdeth_res_1
 0003:00002E5E       aLogeintr_res
 0003:00002F5D       aLowend_res_1
 0003:0000305C       aDeath_res
 0003:0000315B       aStart1_res
 0003:0000325A       aWin1_res
 0003:00003384       aStdFrnGer
 0003:00003534       _timer_val
 0003:00003538       _timer_addr
 0003:0000353C       _camera
 0003:0000356C       ptr_playerstuff
 0003:00003624       _plPitch
 0003:000036C4       _somedetail
 0003:000036CC       _viddetail
 0003:00003F14       _full_game_3d
 0003:00003F20       _possible_vidmodes
 0003:00003F38       _vidmode_index
 0003:00003F78       _stringFileNames
 0003:00003FFE       _convert_use_mode
 0003:0000424B       _mfdartFilenames
 0003:0000425C       _grum_flags
 0003:00004299       _stand_keys
 0003:000042C0       _togglejm
 0003:000042C2       skip_grum
 0003:000042C5       _key_centerview
 0003:00004D30       _gstate
 0003:00004D34       _trenk_ptr
 0003:00004D38       _regua
 0003:00004D3C       _porco
 0003:00004D40       _fullscreen
 0003:00004D44       _time_passes
 0003:00004D46       _physicsOK
 0003:00004D4D       _showthanks
 0003:00004D4E       _gamePaused
 0003:00004D50       _gs_fnlist_one
 0003:00004D74       _localista
 0003:00004E50       deputado_
 0003:00005914       game_expose_funcs
 0003:000059A0       static_mfd_radius
 0003:000059D8       p15_styles
 0003:00005B5C       _keystotest
 0003:00005BE4       _snd_optstr
 0003:00005BF8       _str_midi
 0003:00005BFC       _str_digi
 0003:00005C00       aSound
 0003:00005D21       _always0_a
 0003:00005D5C       _showid
 0003:00005E74       _playercmdlist
 0003:00006832       aSavgam00_dat
 0003:00006843       _clicked_vmode
 0003:00006858       _somePal
 0003:0000685C       _grd_cap
 0003:00006860       mb_grd_mode
 0003:00006868       _gdd_canvas_stackp
 0003:0000686C       _CursorRegion
 0003:00006870       _CurrentCursor
 0003:00006878       _LastCursor
 0003:0000687C       _MouseLock
 0003:00006880       _numhiderects
 0003:00006884       _curhiderect
 0003:00006888       _CursorCanvas
 0003:0000688C       _CursorMoveTolerance
 0003:00006890       padruera
 0003:000068A4       _ui_mouse_convert
 0003:000068A8       _ui_mouse_convert_round
 0003:000068AC       _region_in_sequence
 0003:000068B0       _region_system_init
 0003:000068C4       _resFileSignature
 0003:000068D4       _file_flags
 0003:000068E0       _checked_malloc
 0003:000068E4       _ptr_free
 0003:00006910       _memIndexAllocStack
 0003:00006914       _Malloc
 0003:00006918       _Realloc
 0003:0000691C       _Free
 0003:00006920       _uiGlobalEventMask
 0003:00006924       _uiDefaultRegionOpacity
 0003:00006928       _uiDoubleClickTime
 0003:0000692A       _uiDoubleClickDelay
 0003:0000692C       _uiDoubleClicksOn
 0003:00006932       _poll_mouse_motion
 0003:00006934       _ui_poll_keys
 0003:00006938       _last_mouse_pos
 0003:0000695C       g_hDig
 0003:00006B24       _uiCurrentSlab
 0003:00006B28       _AIL_2B3B28
 0003:00006BA8       _AIL_semflag_002
 0003:00006BCC       static_sprintf_str_func
 0003:00006DDC       aRcsfilePoints_
 0003:00006E10       aHeaderRPrjLibS
 0003:00006E64       aRcsfileAlloc_asmRevi
 0003:00006E90       aRcsfileFov_asm
 0003:00006EBC       _shad_prim
 0003:00006EBD       _shad_forp
 0003:00006EBE       _shad_trem
 0003:00006ED4       aRcsfileTmap_asmRevis
 0003:00006EFC       _R_MapFunc
 0003:00006F18       _R_ShadeAlphaFlags
 0003:00006F1A       _R_TexFlags
 0003:00006F2C       _pelouro_C
 0003:00007C54       _R_ShadeFlag
 0003:00007C74       _pre_VID_Base_2
 0003:00007C80       aRcsfileInstanc
 0003:00007E14       aRcsfilePolygon
 0003:00008C90       _max_mouse_msgs
 0003:00008C92       _mouseXshift
 0003:00008C93       _mouseYshift
 0003:00008C94       _mouseMask
 0003:00008C95       _mouse_translate
 0003:00008C96       _mouseCalls
 0003:00008C9A       _mouse_installed
 0003:00008C9B       _default_mouse_ticks
 0003:00008C9F       _mouse_ticks
 0003:00008CBB       static_last_ticks
 0003:00008CC0       aRcsfileInterp_
 0003:0000A238       _temp_mem_stack
 0003:0000A240       _gdd_active
 0003:0000A244       _gr_malloc
 0003:0000A248       _gr_free
 0003:0000A274       _timerinc_addr
 0003:0000A27C       _pandorga
 0003:0000A570       __D16Infoseg
 0003:0000A580       aSample
 0003:0000A608       aTimb_0
 0003:0000A618       aRcsfileVector_
 0003:0000A66E       _mono_mode
 0003:0000A746       aStackOverflow
 0003:0000A758       _lorota
 0003:0000A77C       _bilampa
 0003:0000A99C       SVGA_beta_procs
 0003:0000AA50       SV24_beta_procs
 0003:0000AB04       _VID_beta_procs
 0003:0000B958       _VID_gamma_procs
 0003:0000B978       _VID_alpha_procs
 0003:0000B998       _grd_defgc
 0003:0000B9C8       static_old_canvas
 0003:0000B9D4       _AIL_2B89D4
 0003:0000B9D8       ___nheap
 0003:0000B9DC       ___nheapbeg
 0003:0000B9E0       ___nheapblk
 0003:0000BA08       _dbg_f_report_user
 0003:0000BA10       static_exiting
 0003:0000BA24       _def_kbd_sel
 0003:0000BA28       _def_kbdptr
 0003:0000BA2C       _AIL_semflag_001
 0003:0000BA34       aRcsfileGlobv_a
 0003:0000BCFC       ___iob
 0003:0000BF18       _vidmodes
 0003:0000BFD8       _AIL_mem_alloc
 0003:0000BFDC       _AIL_mem_free
 0003:0000BFE0       _AIL_curr_mixfunc
 0003:0000BFE4       _AIL_src_bufbeg
 0003:0000BFE8       _AIL_src_bufend
 0003:0000BFEC       _AIL_dst_bufbeg
 0003:0000BFF0       _AIL_dst_bufend
 0003:0000C000       _timer_callback
 0003:0000C040       _timer_status
 0003:0000C080       _timer_elapsed
 0003:0000C0C0       _timer_value
 0003:0000C100       _int_08_arr4
 0003:0000C140       _timer_user
 0003:0000C18A       _AIL_sys_timer_counter
 0003:0000C18E       _AIL_sys_timer_period
 0003:0000C192       _int08_reenter
 0003:0000C196       _AIL_TimerSemaph
 0003:0000C19A       _save_game_ds
 0003:0000CBA8       _int_08_save_ss
 0003:0000CBAC       _int_08_save_sp
 0003:0000CBB8       _except_count
 0003:0000CBBE       _exh_ss
 0003:0000CBC0       _exh_esp
 0003:0000CBC4       _exhan_targ
 0003:0000CBD0       aHeaderRPrjLi_0
 0003:0000CC28       _mouse_routine_size
 0003:0000CC2C       aHeaderRPrjLibSrc3dRc
 0003:0000CC94       _exhan_installed
 0003:0000CC98       _exhan_ptr
 0003:0000CDA4       _next_vss
 0003:0000CDA8       _mb_videoStateStack
 0003:0000D5A8       _scantokey
 0003:0000DB48       __dynend
 0003:0000DB4C       __curbrk
 0003:0000DB50       __LpCmdLine
 0003:0000DB54       __LpPgmName
 0003:0000DB58       __psp
 0003:0000DB5C       __STACKLOW
 0003:0000DB64       __ASTACKSIZ
 0003:0000DB68       __ASTACKPTR
 0003:0000DB78       __no87
 0003:0000DB7A       __Extender
 0003:0000DB7B       __X32VM
 0003:0000DB7C       __Envptr
 0003:0000DB80       __Envseg
 0003:0000DB82       __osmajor
 0003:0000DB83       __osminor
 0003:0000DB88       _mdinames
 0003:0000DBD8       _dignames
 0003:0000DC28       _mdinums
 0003:0000DC3C       _dignums
 0003:0001289C       _someVidShit
 0003:000128A0       _VID_winpos
 0003:000128A2       _VID_gran
 0003:000128B0       _DPMI_Regs
 0003:000128E2       known_svgamodes
 0003:0001291C       _vidfns
 0003:000129B8       ___heap_enabled
 0003:000129BC       __amblksiz
 0003:000129C0       _vga_device_table
 0003:00012A00       _vesa_device_table
 0003:00012A6C       vb_set_bank_
 0003:00012F7C       _vesa_modes
 0003:000153A8       SV24_gamma_procs
 0003:000158B8       SVGA_alpha_procs
 0003:00017730       SV24_alpha_procs
 0003:00019700       WATSEG_XIB
 0003:00019766       WATSEG_XIE
 0003:00019770       _edata
 0003:0002A5DC       _willbe_conan_5
 0003:0002A640       _mem_size
 0003:0002A744       _Tufao
 0003:00032644       _Pentagono
 0003:0003DA41       _first_tog_data
 0003:0003DAAA       _PhysBuf
 0003:00041C88       _FileName
 0003:00043104       _max_xtile
 0003:0004310C       _max_ytile
 0003:00043114       _hacker_YTile
 0003:00043118       _hacker_XTile
 0003:00043460       _pre_VID_Base_1
 0003:00043474       _ximbruaca
 0003:00043C44       _R_PreRenderObject
 0003:00043C78       _R_RenderRightWall
 0003:00043CB0       _goga_flag
 0003:00043CB4       _cur_xtile
 0003:00043CB8       _cur_ytile
 0003:00044034       _willbe_conan_4
 0003:000440F8       _willbe_conan_3
 0003:00044388       _stringRes
 0003:0004440C       _inv_vid_ratio_w
 0003:0004448C       _vid_ratio_w
 0003:0004450C       _inv_vid_ratio_h
 0003:0004458C       _vid_ratio_h
 0003:0004460C       _num_vidmodes
 0003:00044B28       _resMFDArt
 0003:00044B44       _some_tog
 0003:00044B48       _some_tog_size
 0003:00044B4C       _some_tog_8
 0003:00044B50       _vidRefPtr
 0003:00047374       _level_info_ptr
 0003:00047378       _tileptr
 0003:0004875C       _player_cmd
 0003:00050DC8       _objentries
 0003:0005613C       _ptr_Tufao
 0003:0005620C       _someplayercmd
 0003:0005624C       _aKlong
 0003:00056251       _dangArrIndex
 0003:0005627E       _fplayercmd
 0003:00056284       _mobj_idx
 0003:00056733       _fakePlPitch
 0003:00057790       _VID_SuperPot
 0003:00057908       _algum_bitmap
 0003:00058968       _willbe_conan
 0003:00058A04       _willbe_conan_2
 0003:0006D600       _tiles
 0003:0009AE08       _mot
 0003:000A0A00       _objxre
 0003:001C7BF4       _SomeTable
 0003:001C7C34       _BWTable
 0003:001C8C34       _ShadeTable
 0003:001CA580       _firstguireg
 0003:001CA5B0       _control_idx
 0003:001CBBD0       _tatu
 0003:001CBBD4       _grd_device_table
 0003:001CBBD8       _grd_canvas
 0003:001CBBE0       _grd_visible_canvas
 0003:001CBBE4       _grd_mode_cap
 0003:001CBBF0       _vgamodes
 0003:001CBC60       _DefaultCursorCanvas
 0003:001CBCA0       static_uiCursorCallbackId
 0003:001CBCA4       _HideRect
 0003:001CBCA8       _SaveUnder
 0003:001CD7D0       _rse_pool
 0003:001CDA50       _sequence_header
 0003:001CDA54       _current_expose_region
 0003:001CDA58       _obsc_region
 0003:001CDA5C       _ignore_children
 0003:001CDA5D       _region_found
 0003:001CDA80       _gSpoofDrive
 0003:001CDA88       _resFile
 0003:001CDB08       _gDatapath
 0003:001CDB58       _gResDesc
 0003:001CDB60       _resDescMax
 0003:001CDB80       _memHardCheck
 0003:001CDB90       _keybuf
 0003:001CDD90       _cmd_iw
 0003:001CDD94       _cmd_ir
 0003:001CDD98       _cmd_size
 0003:001CDD9C       _cmd_addr
 0003:001CDDA4       _last_up_events
 0003:001CDDD4       _last_down_events
 0003:001CDDE4       _pato
 0003:001CDDF4       _galo
 0003:001CDE30       static_tmp_bm
 0003:001CE294       _AIL_dig_drv1
 0003:001CE298       _AIL_some_sample1
 0003:001CE29C       _AIL_sampcount1
 0003:001CE2A0       _AIL_samp_index1
 0003:001CE2A4       _AIL_prev_flags
 0003:001CE2A8       _vdicall1
 0003:001CE2B4       _AIL_curr_buffer
 0003:001CE2C4       _cool_sub
 0003:001CE2C8       _video_adapter
 0003:001CE458       _mouseCallData
 0003:001CE498       _mouseCall
 0003:001CE4D8       _mousemsg
 0003:001CE6D8       _mouse_msg_iw
 0003:001CE6DA       _mouseInstantButts
 0003:001CE6DC       _mouse_msg_ir
 0003:001CE6E2       _mouseInstantX
 0003:001CE6E4       _mouseInstantY
 0003:001CE8F0       _escolia
 0003:001CF114       _shiftFlags
 0003:001CF1DC       _AIL_47C1DC
 0003:001CF208       _AIL_47C208
 0003:001CF794       _aistr
 0003:001D955C       _jumento
 0003:001E3738       _portugal
 0003:001E3C58       _tmap_setupfns
 0003:001E3FB0       _errErrCode
 0003:001E3FC0       _kbd_struc_addr
 0003:001E3FE8       _AIL_drivers
 0003:001E4028       _AIL_errmsg
 0003:001E4128       _AIL_last_IO_attempt
 0003:001E4140       _AIL_var_bgtimer_freq
 0003:001E4144       _AIL_var_maybefreq
 0003:001E4148       _AIL_var_somestr
 0003:001E4150       _AIL_var_nsamples
 0003:001E4188       _AIL_intflag_001
 0003:001E418C       _AIL_IOP
 0003:001E41B8       _cagiba
 0003:001E41BC       ___ClosedStreams
 0003:001E41C0       _exfinals
 0003:001E4240       _exfinals_count
 0003:001E44A0       rm_callstr2
 0003:001E45A4       _exhan_tunk
 0003:001E45FC       _prev_int9_addr
 0003:001E4600       _prev_int9_sel
 0003:001E4608       _kbd_ri
 0003:001E4614       _divtab
 0003:001E5658       rm_callstr
 0003:001E5748       ___OpenStreams
 0003:001E574C       ___DPMI_Head
 0003:001E5750       ___nheap_clean
 0003:001E5760       _pExitMsg
 0003:001E5764       _exitMsgInstalled
 0003:001E5924       ____Argv
 0003:001E5928       ____Argc
 0003:001E5978       ___minreal
 0003:001E5990       _end

Program entry point at 0001:0008060C

